
map:     file format elf64-x86-64


Disassembly of section .init:

0000000000001000 <_init>:
    1000:	f3 0f 1e fa          	endbr64
    1004:	48 83 ec 08          	sub    $0x8,%rsp
    1008:	48 8b 05 d9 2f 00 00 	mov    0x2fd9(%rip),%rax        # 3fe8 <__gmon_start__@Base>
    100f:	48 85 c0             	test   %rax,%rax
    1012:	74 02                	je     1016 <_init+0x16>
    1014:	ff d0                	call   *%rax
    1016:	48 83 c4 08          	add    $0x8,%rsp
    101a:	c3                   	ret

Disassembly of section .plt:

0000000000001020 <.plt>:
    1020:	ff 35 82 2f 00 00    	push   0x2f82(%rip)        # 3fa8 <_GLOBAL_OFFSET_TABLE_+0x8>
    1026:	ff 25 84 2f 00 00    	jmp    *0x2f84(%rip)        # 3fb0 <_GLOBAL_OFFSET_TABLE_+0x10>
    102c:	0f 1f 40 00          	nopl   0x0(%rax)
    1030:	f3 0f 1e fa          	endbr64
    1034:	68 00 00 00 00       	push   $0x0
    1039:	e9 e2 ff ff ff       	jmp    1020 <_init+0x20>
    103e:	66 90                	xchg   %ax,%ax
    1040:	f3 0f 1e fa          	endbr64
    1044:	68 01 00 00 00       	push   $0x1
    1049:	e9 d2 ff ff ff       	jmp    1020 <_init+0x20>
    104e:	66 90                	xchg   %ax,%ax
    1050:	f3 0f 1e fa          	endbr64
    1054:	68 02 00 00 00       	push   $0x2
    1059:	e9 c2 ff ff ff       	jmp    1020 <_init+0x20>
    105e:	66 90                	xchg   %ax,%ax
    1060:	f3 0f 1e fa          	endbr64
    1064:	68 03 00 00 00       	push   $0x3
    1069:	e9 b2 ff ff ff       	jmp    1020 <_init+0x20>
    106e:	66 90                	xchg   %ax,%ax

Disassembly of section .plt.got:

0000000000001070 <__cxa_finalize@plt>:
    1070:	f3 0f 1e fa          	endbr64
    1074:	ff 25 7e 2f 00 00    	jmp    *0x2f7e(%rip)        # 3ff8 <__cxa_finalize@GLIBC_2.2.5>
    107a:	66 0f 1f 44 00 00    	nopw   0x0(%rax,%rax,1)

Disassembly of section .plt.sec:

0000000000001080 <free@plt>:
    1080:	f3 0f 1e fa          	endbr64
    1084:	ff 25 2e 2f 00 00    	jmp    *0x2f2e(%rip)        # 3fb8 <free@GLIBC_2.2.5>
    108a:	66 0f 1f 44 00 00    	nopw   0x0(%rax,%rax,1)

0000000000001090 <__stack_chk_fail@plt>:
    1090:	f3 0f 1e fa          	endbr64
    1094:	ff 25 26 2f 00 00    	jmp    *0x2f26(%rip)        # 3fc0 <__stack_chk_fail@GLIBC_2.4>
    109a:	66 0f 1f 44 00 00    	nopw   0x0(%rax,%rax,1)

00000000000010a0 <printf@plt>:
    10a0:	f3 0f 1e fa          	endbr64
    10a4:	ff 25 1e 2f 00 00    	jmp    *0x2f1e(%rip)        # 3fc8 <printf@GLIBC_2.2.5>
    10aa:	66 0f 1f 44 00 00    	nopw   0x0(%rax,%rax,1)

00000000000010b0 <malloc@plt>:
    10b0:	f3 0f 1e fa          	endbr64
    10b4:	ff 25 16 2f 00 00    	jmp    *0x2f16(%rip)        # 3fd0 <malloc@GLIBC_2.2.5>
    10ba:	66 0f 1f 44 00 00    	nopw   0x0(%rax,%rax,1)

Disassembly of section .text:

00000000000010c0 <_start>:
    10c0:	f3 0f 1e fa          	endbr64
    10c4:	31 ed                	xor    %ebp,%ebp
    10c6:	49 89 d1             	mov    %rdx,%r9
    10c9:	5e                   	pop    %rsi
    10ca:	48 89 e2             	mov    %rsp,%rdx
    10cd:	48 83 e4 f0          	and    $0xfffffffffffffff0,%rsp
    10d1:	50                   	push   %rax
    10d2:	54                   	push   %rsp
    10d3:	45 31 c0             	xor    %r8d,%r8d
    10d6:	31 c9                	xor    %ecx,%ecx
    10d8:	48 8d 3d 39 01 00 00 	lea    0x139(%rip),%rdi        # 1218 <main>
    10df:	ff 15 f3 2e 00 00    	call   *0x2ef3(%rip)        # 3fd8 <__libc_start_main@GLIBC_2.34>
    10e5:	f4                   	hlt
    10e6:	66 2e 0f 1f 84 00 00 	cs nopw 0x0(%rax,%rax,1)
    10ed:	00 00 00 

00000000000010f0 <deregister_tm_clones>:
    10f0:	48 8d 3d 21 2f 00 00 	lea    0x2f21(%rip),%rdi        # 4018 <foo>
    10f7:	48 8d 05 1a 2f 00 00 	lea    0x2f1a(%rip),%rax        # 4018 <foo>
    10fe:	48 39 f8             	cmp    %rdi,%rax
    1101:	74 15                	je     1118 <deregister_tm_clones+0x28>
    1103:	48 8b 05 d6 2e 00 00 	mov    0x2ed6(%rip),%rax        # 3fe0 <_ITM_deregisterTMCloneTable@Base>
    110a:	48 85 c0             	test   %rax,%rax
    110d:	74 09                	je     1118 <deregister_tm_clones+0x28>
    110f:	ff e0                	jmp    *%rax
    1111:	0f 1f 80 00 00 00 00 	nopl   0x0(%rax)
    1118:	c3                   	ret
    1119:	0f 1f 80 00 00 00 00 	nopl   0x0(%rax)

0000000000001120 <register_tm_clones>:
    1120:	48 8d 3d f1 2e 00 00 	lea    0x2ef1(%rip),%rdi        # 4018 <foo>
    1127:	48 8d 35 ea 2e 00 00 	lea    0x2eea(%rip),%rsi        # 4018 <foo>
    112e:	48 29 fe             	sub    %rdi,%rsi
    1131:	48 89 f0             	mov    %rsi,%rax
    1134:	48 c1 ee 3f          	shr    $0x3f,%rsi
    1138:	48 c1 f8 03          	sar    $0x3,%rax
    113c:	48 01 c6             	add    %rax,%rsi
    113f:	48 d1 fe             	sar    $1,%rsi
    1142:	74 14                	je     1158 <register_tm_clones+0x38>
    1144:	48 8b 05 a5 2e 00 00 	mov    0x2ea5(%rip),%rax        # 3ff0 <_ITM_registerTMCloneTable@Base>
    114b:	48 85 c0             	test   %rax,%rax
    114e:	74 08                	je     1158 <register_tm_clones+0x38>
    1150:	ff e0                	jmp    *%rax
    1152:	66 0f 1f 44 00 00    	nopw   0x0(%rax,%rax,1)
    1158:	c3                   	ret
    1159:	0f 1f 80 00 00 00 00 	nopl   0x0(%rax)

0000000000001160 <__do_global_dtors_aux>:
    1160:	f3 0f 1e fa          	endbr64
    1164:	80 3d a9 2e 00 00 00 	cmpb   $0x0,0x2ea9(%rip)        # 4014 <completed.0>
    116b:	75 2b                	jne    1198 <__do_global_dtors_aux+0x38>
    116d:	55                   	push   %rbp
    116e:	48 83 3d 82 2e 00 00 	cmpq   $0x0,0x2e82(%rip)        # 3ff8 <__cxa_finalize@GLIBC_2.2.5>
    1175:	00 
    1176:	48 89 e5             	mov    %rsp,%rbp
    1179:	74 0c                	je     1187 <__do_global_dtors_aux+0x27>
    117b:	48 8b 3d 86 2e 00 00 	mov    0x2e86(%rip),%rdi        # 4008 <__dso_handle>
    1182:	e8 e9 fe ff ff       	call   1070 <__cxa_finalize@plt>
    1187:	e8 64 ff ff ff       	call   10f0 <deregister_tm_clones>
    118c:	c6 05 81 2e 00 00 01 	movb   $0x1,0x2e81(%rip)        # 4014 <completed.0>
    1193:	5d                   	pop    %rbp
    1194:	c3                   	ret
    1195:	0f 1f 00             	nopl   (%rax)
    1198:	c3                   	ret
    1199:	0f 1f 80 00 00 00 00 	nopl   0x0(%rax)

00000000000011a0 <frame_dummy>:
    11a0:	f3 0f 1e fa          	endbr64
    11a4:	e9 77 ff ff ff       	jmp    1120 <register_tm_clones>

00000000000011a9 <recur>:
    11a9:	f3 0f 1e fa          	endbr64
    11ad:	55                   	push   %rbp
    11ae:	48 89 e5             	mov    %rsp,%rbp
    11b1:	48 83 ec 20          	sub    $0x20,%rsp
    11b5:	89 7d ec             	mov    %edi,-0x14(%rbp)
    11b8:	64 48 8b 04 25 28 00 	mov    %fs:0x28,%rax
    11bf:	00 00 
    11c1:	48 89 45 f8          	mov    %rax,-0x8(%rbp)
    11c5:	31 c0                	xor    %eax,%eax
    11c7:	8b 45 ec             	mov    -0x14(%rbp),%eax
    11ca:	89 45 f4             	mov    %eax,-0xc(%rbp)
    11cd:	48 8d 55 f4          	lea    -0xc(%rbp),%rdx
    11d1:	8b 45 ec             	mov    -0x14(%rbp),%eax
    11d4:	89 c6                	mov    %eax,%esi
    11d6:	48 8d 05 2b 0e 00 00 	lea    0xe2b(%rip),%rax        # 2008 <_IO_stdin_used+0x8>
    11dd:	48 89 c7             	mov    %rax,%rdi
    11e0:	b8 00 00 00 00       	mov    $0x0,%eax
    11e5:	e8 b6 fe ff ff       	call   10a0 <printf@plt>
    11ea:	83 7d ec 00          	cmpl   $0x0,-0x14(%rbp)
    11ee:	7e 0d                	jle    11fd <recur+0x54>
    11f0:	8b 45 ec             	mov    -0x14(%rbp),%eax
    11f3:	83 e8 01             	sub    $0x1,%eax
    11f6:	89 c7                	mov    %eax,%edi
    11f8:	e8 ac ff ff ff       	call   11a9 <recur>
    11fd:	b8 00 00 00 00       	mov    $0x0,%eax
    1202:	48 8b 55 f8          	mov    -0x8(%rbp),%rdx
    1206:	64 48 2b 14 25 28 00 	sub    %fs:0x28,%rdx
    120d:	00 00 
    120f:	74 05                	je     1216 <recur+0x6d>
    1211:	e8 7a fe ff ff       	call   1090 <__stack_chk_fail@plt>
    1216:	c9                   	leave
    1217:	c3                   	ret

0000000000001218 <main>:
    1218:	f3 0f 1e fa          	endbr64
    121c:	55                   	push   %rbp
    121d:	48 89 e5             	mov    %rsp,%rbp
    1220:	48 83 ec 30          	sub    $0x30,%rsp
    1224:	89 7d dc             	mov    %edi,-0x24(%rbp)
    1227:	48 89 75 d0          	mov    %rsi,-0x30(%rbp)
    122b:	64 48 8b 04 25 28 00 	mov    %fs:0x28,%rax
    1232:	00 00 
    1234:	48 89 45 f8          	mov    %rax,-0x8(%rbp)
    1238:	31 c0                	xor    %eax,%eax
    123a:	c7 45 e4 00 00 00 00 	movl   $0x0,-0x1c(%rbp)
    1241:	bf 64 00 00 00       	mov    $0x64,%edi
    1246:	e8 65 fe ff ff       	call   10b0 <malloc@plt>
    124b:	48 89 45 e8          	mov    %rax,-0x18(%rbp)
    124f:	bf 64 00 00 00       	mov    $0x64,%edi
    1254:	e8 57 fe ff ff       	call   10b0 <malloc@plt>
    1259:	48 89 45 f0          	mov    %rax,-0x10(%rbp)
    125d:	48 8d 05 b4 ff ff ff 	lea    -0x4c(%rip),%rax        # 1218 <main>
    1264:	48 89 c6             	mov    %rax,%rsi
    1267:	48 8d 05 b4 0d 00 00 	lea    0xdb4(%rip),%rax        # 2022 <_IO_stdin_used+0x22>
    126e:	48 89 c7             	mov    %rax,%rdi
    1271:	b8 00 00 00 00       	mov    $0x0,%eax
    1276:	e8 25 fe ff ff       	call   10a0 <printf@plt>
    127b:	48 8d 05 96 2d 00 00 	lea    0x2d96(%rip),%rax        # 4018 <foo>
    1282:	48 89 c6             	mov    %rax,%rsi
    1285:	48 8d 05 a2 0d 00 00 	lea    0xda2(%rip),%rax        # 202e <_IO_stdin_used+0x2e>
    128c:	48 89 c7             	mov    %rax,%rdi
    128f:	b8 00 00 00 00       	mov    $0x0,%eax
    1294:	e8 07 fe ff ff       	call   10a0 <printf@plt>
    1299:	48 8d 05 70 2d 00 00 	lea    0x2d70(%rip),%rax        # 4010 <stuff>
    12a0:	48 89 c6             	mov    %rax,%rsi
    12a3:	48 8d 05 9e 0d 00 00 	lea    0xd9e(%rip),%rax        # 2048 <_IO_stdin_used+0x48>
    12aa:	48 89 c7             	mov    %rax,%rdi
    12ad:	b8 00 00 00 00       	mov    $0x0,%eax
    12b2:	e8 e9 fd ff ff       	call   10a0 <printf@plt>
    12b7:	48 8d 45 e4          	lea    -0x1c(%rbp),%rax
    12bb:	48 89 c6             	mov    %rax,%rsi
    12be:	48 8d 05 a2 0d 00 00 	lea    0xda2(%rip),%rax        # 2067 <_IO_stdin_used+0x67>
    12c5:	48 89 c7             	mov    %rax,%rdi
    12c8:	b8 00 00 00 00       	mov    $0x0,%eax
    12cd:	e8 ce fd ff ff       	call   10a0 <printf@plt>
    12d2:	48 8b 45 e8          	mov    -0x18(%rbp),%rax
    12d6:	48 89 c6             	mov    %rax,%rsi
    12d9:	48 8d 05 9c 0d 00 00 	lea    0xd9c(%rip),%rax        # 207c <_IO_stdin_used+0x7c>
    12e0:	48 89 c7             	mov    %rax,%rdi
    12e3:	b8 00 00 00 00       	mov    $0x0,%eax
    12e8:	e8 b3 fd ff ff       	call   10a0 <printf@plt>
    12ed:	48 8b 45 f0          	mov    -0x10(%rbp),%rax
    12f1:	48 89 c6             	mov    %rax,%rsi
    12f4:	48 8d 05 95 0d 00 00 	lea    0xd95(%rip),%rax        # 2090 <_IO_stdin_used+0x90>
    12fb:	48 89 c7             	mov    %rax,%rdi
    12fe:	b8 00 00 00 00       	mov    $0x0,%eax
    1303:	e8 98 fd ff ff       	call   10a0 <printf@plt>
    1308:	bf 03 00 00 00       	mov    $0x3,%edi
    130d:	e8 97 fe ff ff       	call   11a9 <recur>
    1312:	48 8b 45 e8          	mov    -0x18(%rbp),%rax
    1316:	48 89 c7             	mov    %rax,%rdi
    1319:	e8 62 fd ff ff       	call   1080 <free@plt>
    131e:	48 8b 45 f0          	mov    -0x10(%rbp),%rax
    1322:	48 89 c7             	mov    %rax,%rdi
    1325:	e8 56 fd ff ff       	call   1080 <free@plt>
    132a:	b8 00 00 00 00       	mov    $0x0,%eax
    132f:	48 8b 55 f8          	mov    -0x8(%rbp),%rdx
    1333:	64 48 2b 14 25 28 00 	sub    %fs:0x28,%rdx
    133a:	00 00 
    133c:	74 05                	je     1343 <main+0x12b>
    133e:	e8 4d fd ff ff       	call   1090 <__stack_chk_fail@plt>
    1343:	c9                   	leave
    1344:	c3                   	ret

Disassembly of section .fini:

0000000000001348 <_fini>:
    1348:	f3 0f 1e fa          	endbr64
    134c:	48 83 ec 08          	sub    $0x8,%rsp
    1350:	48 83 c4 08          	add    $0x8,%rsp
    1354:	c3                   	ret
